target datalayout = "e-m:e-p270:32:32-p271:32:32-p272:64:64-i64:64-i128:128-f80:128-n8:16:32:64-S128"
target triple = "x86_64-unknown-linux-gnu"

; Function Attrs: mustprogress nounwind uwtable
define internal noundef double @_ZN8QuantLib12_GLOBAL__N_14PHIDEd(double noundef %Z) #1 {
entry:
  %Z.addr = alloca double, align 8
  %P0 = alloca double, align 8
  %P1 = alloca double, align 8
  %P2 = alloca double, align 8
  %P3 = alloca double, align 8
  %P4 = alloca double, align 8
  %P5 = alloca double, align 8
  %P6 = alloca double, align 8
  %Q0 = alloca double, align 8
  %Q1 = alloca double, align 8
  %Q2 = alloca double, align 8
  %Q3 = alloca double, align 8
  %Q4 = alloca double, align 8
  %Q5 = alloca double, align 8
  %Q6 = alloca double, align 8
  %Q7 = alloca double, align 8
  %P = alloca double, align 8
  %EXPNTL = alloca double, align 8
  %CUTOFF = alloca double, align 8
  %ROOTPI = alloca double, align 8
  %ZABS = alloca double, align 8
  store double %Z, ptr %Z.addr, align 8, !tbaa !62
  call void @llvm.lifetime.start.p0(i64 8, ptr %P0) #11
  call void @llvm.lifetime.start.p0(i64 8, ptr %P1) #11
  call void @llvm.lifetime.start.p0(i64 8, ptr %P2) #11
  call void @llvm.lifetime.start.p0(i64 8, ptr %P3) #11
  call void @llvm.lifetime.start.p0(i64 8, ptr %P4) #11
  call void @llvm.lifetime.start.p0(i64 8, ptr %P5) #11
  call void @llvm.lifetime.start.p0(i64 8, ptr %P6) #11
  call void @llvm.lifetime.start.p0(i64 8, ptr %Q0) #11
  call void @llvm.lifetime.start.p0(i64 8, ptr %Q1) #11
  call void @llvm.lifetime.start.p0(i64 8, ptr %Q2) #11
  call void @llvm.lifetime.start.p0(i64 8, ptr %Q3) #11
  call void @llvm.lifetime.start.p0(i64 8, ptr %Q4) #11
  call void @llvm.lifetime.start.p0(i64 8, ptr %Q5) #11
  call void @llvm.lifetime.start.p0(i64 8, ptr %Q6) #11
  call void @llvm.lifetime.start.p0(i64 8, ptr %Q7) #11
  call void @llvm.lifetime.start.p0(i64 8, ptr %P) #11
  call void @llvm.lifetime.start.p0(i64 8, ptr %EXPNTL) #11
  call void @llvm.lifetime.start.p0(i64 8, ptr %CUTOFF) #11
  call void @llvm.lifetime.start.p0(i64 8, ptr %ROOTPI) #11
  call void @llvm.lifetime.start.p0(i64 8, ptr %ZABS) #11
  store double 0x406B869EA974C7E9, ptr %P0, align 8, !tbaa !62
  store double 0x406BA6D5C7A28CF5, ptr %P1, align 8, !tbaa !62
  store double 0x405C05131CA58D35, ptr %P2, align 8, !tbaa !62
  store double 0x4040F4D8CBB02431, ptr %P3, align 8, !tbaa !62
  store double 0x40197EEFF2A86F23, ptr %P4, align 8, !tbaa !62
  store double 0x3FE66989BE8EA720, ptr %P5, align 8, !tbaa !62
  store double 0x3FA20DED0B57FBDD, ptr %P6, align 8, !tbaa !62
  store double 0x407B869EA974C7E9, ptr %Q0, align 8, !tbaa !62
  store double 0x4088CE9CB298974E, ptr %Q1, align 8, !tbaa !62
  store double 0x4083EAAB47FA1778, ptr %Q2, align 8, !tbaa !62
  store double 0x4072890729BA781A, ptr %Q3, align 8, !tbaa !62
  store double 0x4055B1F78433A599, ptr %Q4, align 8, !tbaa !62
  store double 0x4030106DF11BD48F, ptr %Q5, align 8, !tbaa !62
  store double 0x3FFC173673887D1A, ptr %Q6, align 8, !tbaa !62
  store double 0x3FB6A09E667F3BCD, ptr %Q7, align 8, !tbaa !62
  store double 0x40040D931FF62707, ptr %ROOTPI, align 8, !tbaa !62
  store double 0x401C48C6001F0ABF, ptr %CUTOFF, align 8, !tbaa !62
  %0 = load double, ptr %Z.addr, align 8, !tbaa !62
  %1 = call double @llvm.fabs.f64(double %0)
  store double %1, ptr %ZABS, align 8, !tbaa !62
  %2 = load double, ptr %ZABS, align 8, !tbaa !62
  %cmp = fcmp ogt double %2, 3.700000e+01
  br i1 %cmp, label %if.then, label %if.else

if.then:                                          ; preds = %entry
  store double 0.000000e+00, ptr %P, align 8, !tbaa !62
  br label %if.end29

if.else:                                          ; preds = %entry
  %3 = load double, ptr %ZABS, align 8, !tbaa !62
  %fneg = fneg double %3
  %4 = load double, ptr %ZABS, align 8, !tbaa !62
  %mul = fmul double %fneg, %4
  %div = fdiv double %mul, 2.000000e+00
  %call = call double @exp(double noundef %div) #11, !tbaa !14
  store double %call, ptr %EXPNTL, align 8, !tbaa !62
  %5 = load double, ptr %ZABS, align 8, !tbaa !62
  %6 = load double, ptr %CUTOFF, align 8, !tbaa !62
  %cmp1 = fcmp olt double %5, %6
  br i1 %cmp1, label %if.then2, label %if.else18

if.then2:                                         ; preds = %if.else
  %7 = load double, ptr %EXPNTL, align 8, !tbaa !62
  %8 = load double, ptr %P6, align 8, !tbaa !62
  %9 = load double, ptr %ZABS, align 8, !tbaa !62
  %10 = load double, ptr %P5, align 8, !tbaa !62
  %11 = call double @llvm.fmuladd.f64(double %8, double %9, double %10)
  %12 = load double, ptr %ZABS, align 8, !tbaa !62
  %13 = load double, ptr %P4, align 8, !tbaa !62
  %14 = call double @llvm.fmuladd.f64(double %11, double %12, double %13)
  %15 = load double, ptr %ZABS, align 8, !tbaa !62
  %16 = load double, ptr %P3, align 8, !tbaa !62
  %17 = call double @llvm.fmuladd.f64(double %14, double %15, double %16)
  %18 = load double, ptr %ZABS, align 8, !tbaa !62
  %19 = load double, ptr %P2, align 8, !tbaa !62
  %20 = call double @llvm.fmuladd.f64(double %17, double %18, double %19)
  %21 = load double, ptr %ZABS, align 8, !tbaa !62
  %22 = load double, ptr %P1, align 8, !tbaa !62
  %23 = call double @llvm.fmuladd.f64(double %20, double %21, double %22)
  %24 = load double, ptr %ZABS, align 8, !tbaa !62
  %25 = load double, ptr %P0, align 8, !tbaa !62
  %26 = call double @llvm.fmuladd.f64(double %23, double %24, double %25)
  %mul9 = fmul double %7, %26
  %27 = load double, ptr %Q7, align 8, !tbaa !62
  %28 = load double, ptr %ZABS, align 8, !tbaa !62
  %29 = load double, ptr %Q6, align 8, !tbaa !62
  %30 = call double @llvm.fmuladd.f64(double %27, double %28, double %29)
  %31 = load double, ptr %ZABS, align 8, !tbaa !62
  %32 = load double, ptr %Q5, align 8, !tbaa !62
  %33 = call double @llvm.fmuladd.f64(double %30, double %31, double %32)
  %34 = load double, ptr %ZABS, align 8, !tbaa !62
  %35 = load double, ptr %Q4, align 8, !tbaa !62
  %36 = call double @llvm.fmuladd.f64(double %33, double %34, double %35)
  %37 = load double, ptr %ZABS, align 8, !tbaa !62
  %38 = load double, ptr %Q3, align 8, !tbaa !62
  %39 = call double @llvm.fmuladd.f64(double %36, double %37, double %38)
  %40 = load double, ptr %ZABS, align 8, !tbaa !62
  %41 = load double, ptr %Q2, align 8, !tbaa !62
  %42 = call double @llvm.fmuladd.f64(double %39, double %40, double %41)
  %43 = load double, ptr %ZABS, align 8, !tbaa !62
  %44 = load double, ptr %Q1, align 8, !tbaa !62
  %45 = call double @llvm.fmuladd.f64(double %42, double %43, double %44)
  %46 = load double, ptr %ZABS, align 8, !tbaa !62
  %47 = load double, ptr %Q0, align 8, !tbaa !62
  %48 = call double @llvm.fmuladd.f64(double %45, double %46, double %47)
  %div17 = fdiv double %mul9, %48
  store double %div17, ptr %P, align 8, !tbaa !62
  br label %if.end

if.else18:                                        ; preds = %if.else
  %49 = load double, ptr %EXPNTL, align 8, !tbaa !62
  %50 = load double, ptr %ZABS, align 8, !tbaa !62
  %51 = load double, ptr %ZABS, align 8, !tbaa !62
  %52 = load double, ptr %ZABS, align 8, !tbaa !62
  %53 = load double, ptr %ZABS, align 8, !tbaa !62
  %54 = load double, ptr %ZABS, align 8, !tbaa !62
  %add = fadd double %54, 6.500000e-01
  %div19 = fdiv double 4.000000e+00, %add
  %add20 = fadd double %53, %div19
  %div21 = fdiv double 3.000000e+00, %add20
  %add22 = fadd double %52, %div21
  %div23 = fdiv double 2.000000e+00, %add22
  %add24 = fadd double %51, %div23
  %div25 = fdiv double 1.000000e+00, %add24
  %add26 = fadd double %50, %div25
  %div27 = fdiv double %49, %add26
  %55 = load double, ptr %ROOTPI, align 8, !tbaa !62
  %div28 = fdiv double %div27, %55
  store double %div28, ptr %P, align 8, !tbaa !62
  br label %if.end

if.end:                                           ; preds = %if.else18, %if.then2
  br label %if.end29

if.end29:                                         ; preds = %if.end, %if.then
  %56 = load double, ptr %Z.addr, align 8, !tbaa !62
  %cmp30 = fcmp ogt double %56, 0.000000e+00
  br i1 %cmp30, label %if.then31, label %if.end32

if.then31:                                        ; preds = %if.end29
  %57 = load double, ptr %P, align 8, !tbaa !62
  %sub = fsub double 1.000000e+00, %57
  store double %sub, ptr %P, align 8, !tbaa !62
  br label %if.end32

if.end32:                                         ; preds = %if.then31, %if.end29
  %58 = load double, ptr %P, align 8, !tbaa !62
  call void @llvm.lifetime.end.p0(i64 8, ptr %ZABS) #11
  call void @llvm.lifetime.end.p0(i64 8, ptr %ROOTPI) #11
  call void @llvm.lifetime.end.p0(i64 8, ptr %CUTOFF) #11
  call void @llvm.lifetime.end.p0(i64 8, ptr %EXPNTL) #11
  call void @llvm.lifetime.end.p0(i64 8, ptr %P) #11
  call void @llvm.lifetime.end.p0(i64 8, ptr %Q7) #11
  call void @llvm.lifetime.end.p0(i64 8, ptr %Q6) #11
  call void @llvm.lifetime.end.p0(i64 8, ptr %Q5) #11
  call void @llvm.lifetime.end.p0(i64 8, ptr %Q4) #11
  call void @llvm.lifetime.end.p0(i64 8, ptr %Q3) #11
  call void @llvm.lifetime.end.p0(i64 8, ptr %Q2) #11
  call void @llvm.lifetime.end.p0(i64 8, ptr %Q1) #11
  call void @llvm.lifetime.end.p0(i64 8, ptr %Q0) #11
  call void @llvm.lifetime.end.p0(i64 8, ptr %P6) #11
  call void @llvm.lifetime.end.p0(i64 8, ptr %P5) #11
  call void @llvm.lifetime.end.p0(i64 8, ptr %P4) #11
  call void @llvm.lifetime.end.p0(i64 8, ptr %P3) #11
  call void @llvm.lifetime.end.p0(i64 8, ptr %P2) #11
  call void @llvm.lifetime.end.p0(i64 8, ptr %P1) #11
  call void @llvm.lifetime.end.p0(i64 8, ptr %P0) #11
  ret double %58
}