; Function Attrs: mustprogress nofree nounwind willreturn memory(write) uwtable
define internal fastcc noundef double @_ZN8QuantLib12_GLOBAL__N_14PHIDEd(double noundef %Z) unnamed_addr #21 {
entry:
  %0 = tail call double @llvm.fabs.f64(double %Z)
  %cmp = fcmp ogt double %0, 3.700000e+01
  br i1 %cmp, label %if.end29, label %if.else

if.else:                                          ; preds = %entry
  %fneg = fneg double %0
  %mul = fmul double %0, %fneg
  %div = fmul double %mul, 5.000000e-01
  %call = tail call double @exp(double noundef %div) #30, !tbaa !108
  %cmp1 = fcmp olt double %0, 0x401C48C6001F0ABF
  br i1 %cmp1, label %if.then2, label %if.else18

if.then2:                                         ; preds = %if.else
  %1 = tail call double @llvm.fmuladd.f64(double %0, double 0x3FA20DED0B57FBDD, double 0x3FE66989BE8EA720)
  %2 = tail call double @llvm.fmuladd.f64(double %1, double %0, double 0x40197EEFF2A86F23)
  %3 = tail call double @llvm.fmuladd.f64(double %2, double %0, double 0x4040F4D8CBB02431)
  %4 = tail call double @llvm.fmuladd.f64(double %3, double %0, double 0x405C05131CA58D35)
  %5 = tail call double @llvm.fmuladd.f64(double %4, double %0, double 0x406BA6D5C7A28CF5)
  %6 = tail call double @llvm.fmuladd.f64(double %5, double %0, double 0x406B869EA974C7E9)
  %mul9 = fmul double %6, %call
  %7 = tail call double @llvm.fmuladd.f64(double %0, double 0x3FB6A09E667F3BCD, double 0x3FFC173673887D1A)
  %8 = tail call double @llvm.fmuladd.f64(double %7, double %0, double 0x4030106DF11BD48F)
  %9 = tail call double @llvm.fmuladd.f64(double %8, double %0, double 0x4055B1F78433A599)
  %10 = tail call double @llvm.fmuladd.f64(double %9, double %0, double 0x4072890729BA781A)
  %11 = tail call double @llvm.fmuladd.f64(double %10, double %0, double 0x4083EAAB47FA1778)
  %12 = tail call double @llvm.fmuladd.f64(double %11, double %0, double 0x4088CE9CB298974E)
  %13 = tail call double @llvm.fmuladd.f64(double %12, double %0, double 0x407B869EA974C7E9)
  %div17 = fdiv double %mul9, %13
  br label %if.end29

if.else18:                                        ; preds = %if.else
  %add = fadd double %0, 6.500000e-01
  %div19 = fdiv double 4.000000e+00, %add
  %add20 = fadd double %0, %div19
  %div21 = fdiv double 3.000000e+00, %add20
  %add22 = fadd double %0, %div21
  %div23 = fdiv double 2.000000e+00, %add22
  %add24 = fadd double %0, %div23
  %div25 = fdiv double 1.000000e+00, %add24
  %add26 = fadd double %0, %div25
  %div27 = fdiv double %call, %add26
  %div28 = fdiv double %div27, 0x40040D931FF62707
  br label %if.end29

if.end29:                                         ; preds = %entry, %if.then2, %if.else18
  %P.0 = phi double [ %div17, %if.then2 ], [ %div28, %if.else18 ], [ 0.000000e+00, %entry ]
  %cmp30 = fcmp ogt double %Z, 0.000000e+00
  %sub = fsub double 1.000000e+00, %P.0
  %P.1 = select i1 %cmp30, double %sub, double %P.0
  ret double %P.1
}